target datalayout = "e-m:e-p270:32:32-p271:32:32-p272:64:64-i64:64-i128:128-f80:128-n8:16:32:64-S128"
target triple = "x86_64-pc-linux-gnu"

@.str = private unnamed_addr constant [9 x i8] c"priv_len\00", align 1

; Function Attrs: nounwind uwtable
define i32 @ossl_dh_params_todata(ptr noundef %0, ptr noundef %1, ptr noundef %2) #0 {
  %4 = alloca i32, align 4
  %5 = alloca ptr, align 8
  %6 = alloca ptr, align 8
  %7 = alloca ptr, align 8
  %8 = alloca i64, align 8
  %9 = alloca i32, align 4
  store ptr %0, ptr %5, align 8, !tbaa !3
  store ptr %1, ptr %6, align 8, !tbaa !18
  store ptr %2, ptr %7, align 8, !tbaa !8
  call void @llvm.lifetime.start.p0(i64 8, ptr %8) #4
  %10 = load ptr, ptr %5, align 8, !tbaa !3
  %11 = call i64 @DH_get_length(ptr noundef %10)
  store i64 %11, ptr %8, align 8, !tbaa !10
  %12 = load ptr, ptr %5, align 8, !tbaa !3
  %13 = call ptr @ossl_dh_get0_params(ptr noundef %12)
  %14 = load ptr, ptr %6, align 8, !tbaa !18
  %15 = load ptr, ptr %7, align 8, !tbaa !8
  %16 = call i32 @ossl_ffc_params_todata(ptr noundef %13, ptr noundef %14, ptr noundef %15)
  %17 = icmp ne i32 %16, 0
  br i1 %17, label %19, label %18

18:                                               ; preds = %3
  store i32 0, ptr %4, align 4
  store i32 1, ptr %9, align 4
  br label %30

19:                                               ; preds = %3
  %20 = load i64, ptr %8, align 8, !tbaa !10
  %21 = icmp sgt i64 %20, 0
  br i1 %21, label %22, label %29

22:                                               ; preds = %19
  %23 = load ptr, ptr %6, align 8, !tbaa !18
  %24 = load ptr, ptr %7, align 8, !tbaa !8
  %25 = load i64, ptr %8, align 8, !tbaa !10
  %26 = call i32 @ossl_param_build_set_long(ptr noundef %23, ptr noundef %24, ptr noundef @.str, i64 noundef %25)
  %27 = icmp ne i32 %26, 0
  br i1 %27, label %29, label %28

28:                                               ; preds = %22
  store i32 0, ptr %4, align 4
  store i32 1, ptr %9, align 4
  br label %30

29:                                               ; preds = %22, %19
  store i32 1, ptr %4, align 4
  store i32 1, ptr %9, align 4
  br label %30

30:                                               ; preds = %29, %28, %18
  call void @llvm.lifetime.end.p0(i64 8, ptr %8) #4
  %31 = load i32, ptr %4, align 4
  ret i32 %31
}