; Function Attrs: nounwind uwtable
define range(i32 0, 2) i32 @ossl_dh_params_todata(ptr noundef %0, ptr noundef %1, ptr noundef %2) local_unnamed_addr #0 {
  %4 = tail call i64 @DH_get_length(ptr noundef %0) #3
  %5 = tail call ptr @ossl_dh_get0_params(ptr noundef %0) #3
  %6 = tail call i32 @ossl_ffc_params_todata(ptr noundef %5, ptr noundef %1, ptr noundef %2) #3
  %.not = icmp eq i32 %6, 0
  br i1 %.not, label %12, label %7

7:                                                ; preds = %3
  %8 = icmp sgt i64 %4, 0
  br i1 %8, label %9, label %11

9:                                                ; preds = %7
  %10 = tail call i32 @ossl_param_build_set_long(ptr noundef %1, ptr noundef %2, ptr noundef nonnull @.str, i64 noundef %4) #3
  %.not9 = icmp eq i32 %10, 0
  br i1 %.not9, label %12, label %11

11:                                               ; preds = %9, %7
  br label %12

12:                                               ; preds = %9, %3, %11
  %.0 = phi i32 [ 1, %11 ], [ 0, %3 ], [ 0, %9 ]
  ret i32 %.0
}